; Function Attrs: mustprogress nounwind uwtable
define internal void @_ZN4node9inspector12_GLOBAL__N_19WsHandlerD2Ev(ptr nocapture noundef nonnull align 8 dereferenceable(57) %this) unnamed_addr #0 align 2 {
entry:
  store ptr getelementptr inbounds ({ [10 x ptr] }, ptr @_ZTVN4node9inspector15ProtocolHandlerE, i64 0, i32 0, i64 2), ptr %this, align 8
  %tcp_.i = getelementptr inbounds i8, ptr %this, i64 16
  %0 = load ptr, ptr %tcp_.i, align 8
  %cmp.not.i.i = icmp eq ptr %0, null
  br i1 %cmp.not.i.i, label %_ZN4node9inspector15ProtocolHandlerD2Ev.exit, label %if.then.i.i

if.then.i.i:                                      ; preds = %entry
  tail call void @uv_close(ptr noundef nonnull %0, ptr noundef nonnull @_ZN4node9inspector9TcpHolder8OnClosedEP11uv_handle_s) #19
  br label %_ZN4node9inspector15ProtocolHandlerD2Ev.exit

_ZN4node9inspector15ProtocolHandlerD2Ev.exit:     ; preds = %entry, %if.then.i.i
  store ptr null, ptr %tcp_.i, align 8
  ret void
}